target datalayout = "e-m:e-p270:32:32-p271:32:32-p272:64:64-i64:64-i128:128-f80:128-n8:16:32:64-S128"
target triple = "x86_64-unknown-linux-gnu"

%"struct.google::protobuf::internal::SourceWrapper" = type { ptr }

; Function Attrs: mustprogress uwtable
define linkonce_odr hidden noundef zeroext i1 @_ZN6google8protobuf8internal13MergeFromImplILb0EN4absl12lts_202308024CordEEEbRKNS1_13SourceWrapperIT0_EEPNS0_11MessageLiteENSB_10ParseFlagsE(ptr noundef nonnull align 8 dereferenceable(8) %input, ptr noundef %msg, i32 noundef %parse_flags) #4 comdat {
entry:
  %input.addr = alloca ptr, align 8
  %msg.addr = alloca ptr, align 8
  %parse_flags.addr = alloca i32, align 4
  store ptr %input, ptr %input.addr, align 8
  store ptr %msg, ptr %msg.addr, align 8
  store i32 %parse_flags, ptr %parse_flags.addr, align 4
  %0 = load ptr, ptr %input.addr, align 8
  %1 = load ptr, ptr %msg.addr, align 8
  %2 = load i32, ptr %parse_flags.addr, align 4
  %call = call noundef zeroext i1 @_ZNK6google8protobuf8internal13SourceWrapperIN4absl12lts_202308024CordEE9MergeIntoILb0EEEbPNS0_11MessageLiteENS8_10ParseFlagsE(ptr noundef nonnull align 8 dereferenceable(8) %0, ptr noundef %1, i32 noundef %2)
  ret i1 %call
}

; Function Attrs: mustprogress uwtable
define linkonce_odr hidden noundef zeroext i1 @_ZN6google8protobuf11MessageLite9ParseFromILNS1_10ParseFlagsE1ENS0_8internal13SourceWrapperIN4absl12lts_202308024CordEEEEEbRKT0_(ptr noundef nonnull align 8 dereferenceable(16) %this, ptr noundef nonnull align 8 dereferenceable(8) %input) #4 comdat align 2 {
entry:
  %this.addr = alloca ptr, align 8
  %input.addr = alloca ptr, align 8
  %alias = alloca i8, align 1
  store ptr %this, ptr %this.addr, align 8
  store ptr %input, ptr %input.addr, align 8
  %this1 = load ptr, ptr %this.addr, align 8
  %vtable = load ptr, ptr %this1, align 8
  %vfn = getelementptr inbounds ptr, ptr %vtable, i64 3
  %0 = load ptr, ptr %vfn, align 8
  call void %0(ptr noundef nonnull align 8 dereferenceable(16) %this1)
  store i8 0, ptr %alias, align 1
  %1 = load ptr, ptr %input.addr, align 8
  %call = call noundef zeroext i1 @_ZN6google8protobuf8internal13MergeFromImplILb0EN4absl12lts_202308024CordEEEbRKNS1_13SourceWrapperIT0_EEPNS0_11MessageLiteENSB_10ParseFlagsE(ptr noundef nonnull align 8 dereferenceable(8) %1, ptr noundef %this1, i32 noundef 1)
  ret i1 %call
}

; Function Attrs: mustprogress nounwind uwtable
define linkonce_odr hidden void @_ZN6google8protobuf8internal13SourceWrapperIN4absl12lts_202308024CordEEC2EPKS5_(ptr noundef nonnull align 8 dereferenceable(8) %this, ptr noundef %c) unnamed_addr #5 comdat align 2 {
entry:
  %this.addr = alloca ptr, align 8
  %c.addr = alloca ptr, align 8
  store ptr %this, ptr %this.addr, align 8
  store ptr %c, ptr %c.addr, align 8
  %this1 = load ptr, ptr %this.addr, align 8
  %cord = getelementptr inbounds %"struct.google::protobuf::internal::SourceWrapper", ptr %this1, i32 0, i32 0
  %0 = load ptr, ptr %c.addr, align 8
  store ptr %0, ptr %cord, align 8
  ret void
}

; Function Attrs: mustprogress uwtable
define noundef zeroext i1 @_ZN6google8protobuf11MessageLite13ParseFromCordERKN4absl12lts_202308024CordE(ptr noundef nonnull align 8 dereferenceable(16) %this, ptr noundef nonnull align 8 dereferenceable(16) %cord) #4 align 2 {
entry:
  %this.addr = alloca ptr, align 8
  %cord.addr = alloca ptr, align 8
  %ref.tmp = alloca %"struct.google::protobuf::internal::SourceWrapper", align 8
  store ptr %this, ptr %this.addr, align 8
  store ptr %cord, ptr %cord.addr, align 8
  %this1 = load ptr, ptr %this.addr, align 8
  %0 = load ptr, ptr %cord.addr, align 8
  call void @_ZN6google8protobuf8internal13SourceWrapperIN4absl12lts_202308024CordEEC2EPKS5_(ptr noundef nonnull align 8 dereferenceable(8) %ref.tmp, ptr noundef %0)
  %call = call noundef zeroext i1 @_ZN6google8protobuf11MessageLite9ParseFromILNS1_10ParseFlagsE1ENS0_8internal13SourceWrapperIN4absl12lts_202308024CordEEEEEbRKT0_(ptr noundef nonnull align 8 dereferenceable(16) %this1, ptr noundef nonnull align 8 dereferenceable(8) %ref.tmp)
  ret i1 %call
}